(dp1
S'output'
p2
S"<type 'exceptions.TypeError'> executesql() takes at least 2 arguments (1 given)"
p3
sS'layer'
p4
S'/home/abdulhalim/Desktop/web2py/applications/motor/controllers/default.py'
p5
sS'code'
p6
S'<code object <module> at 0x7f394c1ba530, file "/home/abdulhalim/Desktop/web2py/applications/motor/controllers/default.py", line 1>'
p7
sS'snapshot'
p8
(dp9
sS'traceback'
p10
S'Traceback (most recent call last):\n  File "/home/abdulhalim/Desktop/web2py/gluon/restricted.py", line 219, in restricted\n    exec(ccode, environment)\n  File "/home/abdulhalim/Desktop/web2py/applications/motor/controllers/default.py", line 113, in <module>\n  File "/home/abdulhalim/Desktop/web2py/gluon/globals.py", line 409, in <lambda>\n    self._caller = lambda f: f()\n  File "/home/abdulhalim/Desktop/web2py/applications/motor/controllers/default.py", line 69, in get_instruction\n    dire = db.executesql()\nTypeError: executesql() takes at least 2 arguments (1 given)\n'
p11
s.