(dp1
S'output'
p2
S"<type 'exceptions.TypeError'> strptime() argument 1 must be string, not list"
p3
sS'layer'
p4
S'/home/abdulhalim/Desktop/web2py/applications/motor/views/default/index.html'
p5
sS'code'
p6
S'response.write(\'\\n\', escape=False)\nresponse.write(\'<!DOCTYPE html>\\n<!--[if (gt IE 9)|!(IE)]><!-->\\n<html class="no-js" lang="\', escape=False)\nresponse.write(T.accepted_language or \'en\')\nresponse.write(\'"> <!--<![endif]-->\\n<head>\\n    <meta charset="utf-8">\\n    <!-- www.phpied.com/conditional-comments-block-downloads/ -->\\n    <!-- Always force latest IE rendering engine\\n         (even in intranet) & Chrome Frame\\n         Remove this if you use the .htaccess -->\\n    <meta http-equiv="X-UA-Compatible" content="IE=edge\', escape=False)\nresponse.write(not request.is_local and \',chrome=1\' or \'\')\nresponse.write(\'">\\n    <!--  Mobile Viewport Fix\\n          j.mp/mobileviewport & davidbcalhoun.com/2010/viewport-metatag\\n          device-width: Occupy full width of the screen in its current orientation\\n          initial-scale = 1.0 retains dimensions instead of zooming out if page height > device height\\n          user-scalable = yes allows the user to zoom in -->\\n    <meta name="viewport" content="width=device-width, initial-scale=1.0">\\n    <title>\', escape=False)\nresponse.write(response.title or request.application)\nresponse.write(\'</title>\\n    <!-- http://dev.w3.org/html5/markup/meta.name.html -->\\n    <meta name="application-name" content="\', escape=False)\nresponse.write(request.application)\nresponse.write(\'">\\n    <!-- include stylesheets -->\\n    <link rel="stylesheet" href="\', escape=False)\nresponse.write(URL(\'static\',\'css/bootstrap.css\'))\nresponse.write(\'"/>\\n    <!--<link rel="stylesheet" href="\', escape=False)\nresponse.write(URL(\'static\',\'css/animate.css\'))\nresponse.write(\'"/>-->\\n    <!--<link rel="stylesheet" href="\', escape=False)\nresponse.write(URL(\'static\',\'css/font-awesome.css\'))\nresponse.write(\'"/>-->\\n    <link rel="stylesheet" href="\', escape=False)\nresponse.write(URL(\'static\',\'css/main.css\'))\nresponse.write(\'"/>\\n    <link rel="stylesheet" href="\', escape=False)\nresponse.write(URL(\'static\',\'css/plugins.css\'))\nresponse.write(\'"/>\\n    <link rel="stylesheet" href="\', escape=False)\nresponse.write(URL(\'static\',\'css/web2py-bootstrap3.css\'))\nresponse.write(\'"/>\\n    <!--<link rel="stylesheet" href="\', escape=False)\nresponse.write(URL(\'static\',\'css/datatables.min.css\'))\nresponse.write(\'"/>-->\\n    <!--<link rel="stylesheet" href="\', escape=False)\nresponse.write(URL(\'static\',\'css/fullcalendar.min.css\'))\nresponse.write(\'"/>-->\\n    <link rel="stylesheet" href="https://fonts.googleapis.com/css?family=Open+Sans"/>\\n    <!-- Favicons -->\\n    <link rel="shortcut icon" href="\', escape=False)\nresponse.write(URL(\'static\',\'images/favicon.ico\'))\nresponse.write(\'" type="image/x-icon">\\n    <link rel="apple-touch-icon" href="\', escape=False)\nresponse.write(URL(\'static\',\'images/favicon.png\'))\nresponse.write(\'">\\n    <!-- All JavaScript at the bottom, except for Modernizr which enables\\n         HTML5 elements & feature detects -->\\n    <script src="\', escape=False)\nresponse.write(URL(\'static\',\'js/modernizr-2.8.3.min.js\'))\nresponse.write(\'"></script>\\n    <!--[if lt IE 9]>\\n    <script src="\', escape=False)\nresponse.write(URL(\'static\',\'js/respond-1.4.2.min.js\'))\nresponse.write(\'"></script>\\n    <![endif]-->\\n    \', escape=False)\nresponse.write(\'<script type="text/javascript"><!--\\n    // These variables are used by the web2py_ajax_init function in web2py_ajax.js (which is loaded below).\\n    \', escape=False)\nresponse.write(ASSIGNJS(\nw2p_ajax_confirm_message = T(\'Are you sure you want to delete this object?\'),\nw2p_ajax_disable_with_message = T(\'Working...\'),\nw2p_ajax_date_format = T(\'%Y-%m-%d\'),\nw2p_ajax_datetime_format = T(\'%Y-%m-%d %H:%M:%S\'),\najax_error_500 = T.M(\'An error occured, please [[reload %s]] the page\') % URL(args=request.args, vars=request.get_vars)\n))\nresponse.write(\'\\n    //--></script>\\n\', escape=False)\nresponse.files.insert(0,URL(\'static\',\'js/jquery.js\'))\nresponse.files.insert(1,URL(\'static\',\'css/calendar.css\'))\nresponse.files.insert(2,URL(\'static\',\'js/calendar.js\'))\nresponse.files.insert(3,URL(\'static\',\'js/web2py.js\'))\nresponse.include_meta()\nresponse.include_files()\nresponse.write(\'\\n\', escape=False)\nresponse.write(\' <!-- this includes jquery.js, calendar.js/.css and web2py.js -->\\n    <script src="\', escape=False)\nresponse.write(URL(\'static\',\'js/moment-with-locales.min.js\'))\nresponse.write(\'"></script>\\n    \', escape=False)\nresponse.write(\'\\n    \', escape=False)\n# using sidebars need to know what sidebar you want to use\nmc0 = \'col-md-12\'\nmc1 = \'col-md-9\'\nmc2 = \'col-md-6\'\nleft_sidebar_enabled = globals().get(\'left_sidebar_enabled\', True)\nright_sidebar_enabled = globals().get(\'right_sidebar_enabled\', False)\nmiddle_column = {0: mc0, 1: mc1, 2: mc2}[\n(left_sidebar_enabled and 1 or 0)+(right_sidebar_enabled and 1 or 0)]\nresponse.write(\'\\n</head>\\n<body>\\n<!--[if lt IE 8]><p class="browserupgrade">You are using an <strong>outdated</strong> browser. Please <a href="http://browsehappy.com/">upgrade your browser</a> to improve your experience.</p>\\n<![endif]-->\\n<div class="w2p_flash alert alert-dismissable">\', escape=False)\nresponse.write(response.flash or \'\')\nresponse.write(\'</div>\\n<div id="admin-panel">\\n    <!-- Navbar ======================================= -->\\n    <div class=\\\'container-fluid\\\' id="page-wrapper">\\n        <div class="row">\\n            <div id="page-header" class="col-md-12 bg-gradient-8">\\n                <div id="mobile-navigation">\\n                    <button id="nav-toggle" class="visible-xs visible-sm collapsed" data-toggle="collapse" data-target="#page-sidebar"><span></span></button>\\n                    <a href="index.html" class="logo-content-small" title="MonarchUI"></a>\\n                </div>\\n                <div id="header-logo" class="logo-bg">\\n                    <a href="\', escape=False)\nresponse.write(URL(\'default\',\'index\'))\nresponse.write(\'" class="logo-content-big" title="Motor2Control">\\n                        Motor2Control\\n                    </a>\\n                </div>\\n                <div id="header-nav-right">\\n                    <div class="user-account-btn dropdown">\\n                        <a href="#" title="My Account" class="user-profile clearfix" data-toggle="dropdown"> <img\\n                                width="28" src="\', escape=False)\nresponse.write(URL(\'static\',\'images/avatar.png\'))\nresponse.write(\'" alt="Profile image">\\n                            \', escape=False)\nif auth.user:\n    response.write(\'\\n                            <span>\', escape=False)\n    response.write("%(first_name)s %(last_name)s" % auth.user)\n    response.write(\'</span>\\n                            <i class="fa fa-angle-down"></i>\\n                            \', escape=False)\n    pass\nresponse.write(\'\\n                        </a>\\n                        <div class="dropdown-menu dropdown-menu-right">\\n                            <div class="box-sm">\\n                                <div class="login-box clearfix">\\n                                    <div class="user-img"><img src="\', escape=False)\nresponse.write(URL(\'static\',\'images/avatar.png\'))\nresponse.write(\'" alt="">\\n                                    </div>\\n                                    <div class="user-info">\\n                                      \', escape=False)\nif auth.user:\n    response.write(\'\\n                                      <span>\', escape=False)\n    response.write("%(first_name)s %(last_name)s" % auth.user)\n    response.write(\'</span>\\n                                      <a href="\', escape=False)\n    response.write(URL(\'default\',\'user/profile\'))\n    response.write(\'" title="Edit profile>EditProfile</a> <a href="\', escape=False)\n    response.write(URL(\'default\',\'userchange_password\'))\n    response.write(\'" title="Change Password">Change Password</a>\\n                                        \', escape=False)\n    pass\nresponse.write(\'\\n                                    </div>\\n                                </div>\\n                                <div class="button_logout button-pane button-pane-alt text-center">\\n                                    <a href="\', escape=False)\nresponse.write(URL(\'default\',\'user/logout\'))\nresponse.write(\'"\\n                                       class="btn display-block font-normal btn-danger"> <i class="fa fa-power-off"></i>\\n                                        Logout </a>\\n                                </div>\\n                            </div>\\n                        </div>\\n                    </div>\\n                </div>\\n                <!-- #header-nav-left -->\\n            </div>\\n        </div>\\n    </div>\\n    <!-- Masthead ===================================== -->\\n\', escape=False)\nresponse.write(\'\\n\', escape=False)\nresponse.write(\'\\n\\n<div id="page-content" class="col-md-9 col-sm-12 col-xs-12">\\n  <div class="page-body">\\n  \', escape=False)\nresponse.write(\'\\n  \', escape=False)\nresponse.write(\'\\n\', escape=False)\nfrom datetime import datetime\nresponse.write("\\n<div class=\'row\'>\\n    ", escape=False)\n#=user_devices\nresponse.write(\'\\n    \', escape=False)\nfor device in user_devices:\n    response.write(\'\\n    <div class="col-md-4 col-sm-4">\\n        <div class="tile-box tile-box-alt mrg20B bg-user">\\n            <div class="tile-header">\', escape=False)\n    response.write(device[2])\n    response.write(\'</div>\\n            <div class="tile-content-wrapper"><i class="glyph-icon fa-tachometer"></i>\\n                <div class="tile-content"> \', escape=False)\n    response.write(device[4])\n    response.write(\'</div>\\n            </div>\\n            \', escape=False)\n    if device[6] == device[7]:\n        response.write(\'\\n            <div class="">Last Connected: Not yet</div>\\n            \', escape=False)\n    else:\n        response.write(\'\\n            \', escape=False)\n        connected=str(device[7]).split()\n        response.write(\'\\n            <div class="">Last Connected: \', escape=False)\n        response.write(datetime.strptime(connected, \'%Y-%m-%d\').strftime(\'%d-%m-%Y\'))\n        response.write(\' | \', escape=False)\n        response.write(connected[1])\n        response.write(\'</div>\\n            \', escape=False)\n        pass\n    response.write(\'\\n            <a href="\', escape=False)\n    response.write(URL(\'default\',\'dev_control\', args=device[0]))\n    response.write(\'" class="tile-footer tooltip-button" data-placement="bottom" title="" data-original-title="Device">View Controller\\n            <i class="glyph-icon fa-cog"></i>\\n            </a>\\n        </div>\\n    </div>\\n    \', escape=False)\n    pass\nresponse.write(\'\\n\\n    <h3>\\n        Add your device: <a href="\', escape=False)\nresponse.write(URL(\'add_device\'))\nresponse.write(\'">click</a>\\n    </h3>\\n</div>\\n\\n\\n\', escape=False)\n#=device_status\nresponse.write(\'\\n\\n<script type="text/javascript">\\n    $(document).ready(function() {\\n    $(\\\'#device-status\\\').DataTable( {\\n        responsive:     true,\\n        paging:         true,\\n        lengthMenu: [ 10, 25, 50, 75, 100 ],\\n        dom: \\\'lfBrtip\\\',\\n        buttons: [\\n            \\\'copy\\\', \\\'csv\\\', \\\'excel\\\', \\\'pdf\\\', \\\'print\\\'\\n        ],\\n        responsive: {\\n            details: {\\n                type: \\\'column\\\',\\n                target: \\\'tr\\\'\\n            }\\n        },\\n        columnDefs: [\\n        {\\n            className: \\\'control\\\',\\n            responsivePriority: 1,\\n            orderable: false,\\n            targets:   0\\n        },\\n        {\\n            responsivePriority: 2,\\n            targets: 1\\n        },\\n        {\\n            responsivePriority: 3,\\n            targets: -1\\n        },\\n        {\\n            responsivePriority: 4,\\n            targets: -2\\n        }\\n        ],\\n        order: [ 1, \\\'asc\\\' ]\\n    } );\\n    } );\\n</script>\', escape=False)\nresponse.write(\'\\n  \', escape=False)\nresponse.write(\'\\n  </div>\\n</div>\\n\\n\', escape=False)\nif right_sidebar_enabled:\n    response.write(\'\\n  <div class="col-md-3">\\n    \', escape=False)\n    response.write(\'\\n        <h3>Right Sidebar</h3>\\n        <p></p>\\n    \', escape=False)\n    response.write(\'\\n    </div>\\n    \', escape=False)\n    pass\nresponse.write(\'\\n  </div>\\n</div>\\n\\n\', escape=False)\nresponse.write(\'\\n\', escape=False)\nresponse.write(\'\\n<!-- The javascript =============================== -->\\n<script src="\', escape=False)\nresponse.write(URL(\'static\',\'js/main.js\'))\nresponse.write(\'"></script>\\n<script src="\', escape=False)\nresponse.write(URL(\'static\',\'js/bootstrap.min.js\'))\nresponse.write(\'"></script>\\n<script src="\', escape=False)\nresponse.write(URL(\'static\',\'js/web2py-bootstrap3.js\'))\nresponse.write(\'"></script>\\n<script src="\', escape=False)\nresponse.write(URL(\'static\',\'js/datatables.min.js\'))\nresponse.write(\'"></script>\\n<script src="\', escape=False)\nresponse.write(URL(\'static\',\'js/fullcalendar.min.js\'))\nresponse.write(\'"></script>\\n\', escape=False)\nresponse.write(\'\\n</body>\\n</html>\\n\', escape=False)'
p7
sS'snapshot'
p8
(dp9
sS'traceback'
p10
S'Traceback (most recent call last):\n  File "/home/abdulhalim/Desktop/web2py/gluon/restricted.py", line 219, in restricted\n    exec(ccode, environment)\n  File "<string>", line 110, in <module>\nTypeError: strptime() argument 1 must be string, not list\n'
p11
s.